Certificate:
    Data:
        Version: 3 (0x2)
        Serial Number: 58 (0x3a)
    Signature Algorithm: sha1WithRSAEncryption
        Issuer: C=IT, O=IGI, CN=Test CA
        Validity
            Not Before: Sep 24 11:47:52 2013 GMT
            Not After : Sep 22 11:47:52 2023 GMT
        Subject: C=IT, O=IGI, CN=voms-service
        Subject Public Key Info:
            Public Key Algorithm: rsaEncryption
                Public-Key: (2048 bit)
                Modulus:
                    00:d3:ba:0f:24:8f:1d:71:0c:55:03:14:d5:2b:24:
                    d2:ef:ff:da:76:f8:3c:7e:34:bc:a6:b4:49:d2:57:
                    f9:f5:1c:0b:ec:b4:6f:ac:38:7f:3f:51:7b:41:10:
                    82:bf:06:69:d9:d0:8f:f4:cf:7f:d5:15:54:36:b9:
                    47:7b:b6:aa:0c:77:6f:19:22:e4:69:70:c4:ac:65:
                    2e:48:9e:a1:a7:a5:95:db:08:ce:3a:7d:87:e9:6e:
                    8e:c2:c1:12:ab:ff:6c:48:a3:71:42:a5:45:48:74:
                    93:66:f7:87:f9:4f:8d:36:73:c0:ed:50:03:34:a2:
                    a5:d7:d2:14:cc:c1:be:1c:d2:f8:d2:7c:42:c5:9a:
                    fb:1e:a4:6e:9f:eb:bb:34:26:3b:73:22:36:1a:77:
                    3b:c4:87:f6:e1:40:af:27:da:b6:39:05:b5:40:a3:
                    4e:bc:e2:99:fc:e1:0f:cb:05:9e:e2:f5:b4:09:d1:
                    ee:e8:69:22:c2:2a:b0:7c:47:94:fb:28:21:7d:51:
                    17:97:a7:d3:7d:a3:fd:b4:34:dd:80:fc:1a:aa:6d:
                    1f:9e:6a:7e:57:f4:3a:18:f5:a6:a8:9d:fb:0c:1a:
                    99:af:db:a6:1a:d6:31:30:be:fe:36:6b:e8:7c:92:
                    1e:21:43:c8:07:8b:9e:c7:59:20:79:a9:8a:20:00:
                    33:95
                Exponent: 65537 (0x10001)
        X509v3 extensions:
            X509v3 Basic Constraints: critical
                CA:FALSE
            X509v3 Subject Key Identifier: 
                0F:8B:FB:33:4C:6D:CF:A6:A3:33:58:B3:93:88:B4:F9:19:CA:F0:43
            X509v3 Key Usage: critical
                Digital Signature, Non Repudiation, Key Encipherment
            X509v3 Extended Key Usage: 
                TLS Web Server Authentication, TLS Web Client Authentication, Microsoft Server Gated Crypto, Netscape Server Gated Crypto, E-mail Protection
            X509v3 Authority Key Identifier: 
                keyid:91:77:36:7B:2E:B4:69:F3:27:EA:B7:F6:08:8B:4A:23:A2:11:49:C6

            X509v3 Subject Alternative Name: 
                email:andrea.ceccanti@cnaf.infn.it
    Signature Algorithm: sha1WithRSAEncryption
         46:cc:66:e1:d8:0e:eb:13:00:ad:23:8a:d1:3a:86:be:b7:16:
         c9:9d:fd:34:45:e1:d8:b7:50:7b:72:33:0f:1c:0b:db:a8:0a:
         bf:a8:6d:ba:27:b7:aa:c7:8f:ec:c0:8a:63:13:10:8f:dc:15:
         63:72:90:d7:69:c2:0a:61:6f:20:c3:65:13:5b:30:bd:02:53:
         b1:01:9e:46:b8:3d:ef:22:68:db:ac:23:64:f1:bc:4e:a9:4a:
         c5:16:1d:84:df:a4:17:d3:08:fe:7d:c5:95:14:df:b8:35:78:
         c8:2e:a2:8f:47:fc:24:af:02:e0:58:ed:09:94:98:83:4a:bc:
         9f:99:3b:e3:3b:a8:3a:a9:40:ec:50:83:7e:63:2e:7a:b3:c5:
         c6:e7:9b:77:d5:f7:87:d6:68:14:1d:e4:fb:e1:1a:4a:43:6e:
         b1:cb:dc:70:d3:31:7c:47:16:2e:a4:91:cc:49:64:4c:85:9c:
         87:fa:a6:23:29:12:ca:44:a0:c7:e0:4b:f4:a7:47:cd:7d:4a:
         4c:50:51:ee:e1:df:a2:2a:0d:32:ef:6d:5e:e1:0f:12:ed:83:
         2a:9b:d4:0c:d1:f1:ad:61:70:5d:b2:a3:99:08:21:6c:88:8c:
         83:ba:9d:05:0f:59:5e:45:c1:38:b4:e9:ef:22:c2:88:15:43:
         e4:37:ba:64
-----BEGIN CERTIFICATE-----
MIIDpTCCAo2gAwIBAgIBOjANBgkqhkiG9w0BAQUFADAtMQswCQYDVQQGEwJJVDEM
MAoGA1UECgwDSUdJMRAwDgYDVQQDDAdUZXN0IENBMB4XDTEzMDkyNDExNDc1MloX
DTIzMDkyMjExNDc1MlowMjELMAkGA1UEBhMCSVQxDDAKBgNVBAoTA0lHSTEVMBMG
A1UEAxMMdm9tcy1zZXJ2aWNlMIIBIjANBgkqhkiG9w0BAQEFAAOCAQ8AMIIBCgKC
AQEA07oPJI8dcQxVAxTVKyTS7//advg8fjS8prRJ0lf59RwL7LRvrDh/P1F7QRCC
vwZp2dCP9M9/1RVUNrlHe7aqDHdvGSLkaXDErGUuSJ6hp6WV2wjOOn2H6W6OwsES
q/9sSKNxQqVFSHSTZveH+U+NNnPA7VADNKKl19IUzMG+HNL40nxCxZr7HqRun+u7
NCY7cyI2Gnc7xIf24UCvJ9q2OQW1QKNOvOKZ/OEPywWe4vW0CdHu6GkiwiqwfEeU
+yghfVEXl6fTfaP9tDTdgPwaqm0fnmp+V/Q6GPWmqJ37DBqZr9umGtYxML7+Nmvo
fJIeIUPIB4uex1kgeamKIAAzlQIDAQABo4HKMIHHMAwGA1UdEwEB/wQCMAAwHQYD
VR0OBBYEFA+L+zNMbc+mozNYs5OItPkZyvBDMA4GA1UdDwEB/wQEAwIF4DA+BgNV
HSUENzA1BggrBgEFBQcDAQYIKwYBBQUHAwIGCisGAQQBgjcKAwMGCWCGSAGG+EIE
AQYIKwYBBQUHAwQwHwYDVR0jBBgwFoAUkXc2ey60afMn6rf2CItKI6IRScYwJwYD
VR0RBCAwHoEcYW5kcmVhLmNlY2NhbnRpQGNuYWYuaW5mbi5pdDANBgkqhkiG9w0B
AQUFAAOCAQEARsxm4dgO6xMArSOK0TqGvrcWyZ39NEXh2LdQe3IzDxwL26gKv6ht
uie3qseP7MCKYxMQj9wVY3KQ12nCCmFvIMNlE1swvQJTsQGeRrg97yJo26wjZPG8
TqlKxRYdhN+kF9MI/n3FlRTfuDV4yC6ij0f8JK8C4FjtCZSYg0q8n5k74zuoOqlA
7FCDfmMuerPFxuebd9X3h9ZoFB3k++EaSkNuscvccNMxfEcWLqSRzElkTIWch/qm
IykSykSgx+BL9KdHzX1KTFBR7uHfoioNMu9tXuEPEu2DKpvUDNHxrWFwXbKjmQgh
bIiMg7qdBQ9ZXkXBOLTp7yLCiBVD5De6ZA==
-----END CERTIFICATE-----
