Certificate:
    Data:
        Version: 3 (0x2)
        Serial Number: 5 (0x5)
    Signature Algorithm: sha1WithRSAEncryption
        Issuer: C=IT, ST=Emilia Romagna, L=Bologna, O=IGI, OU=VOMS, CN=Test CA
        Validity
            Not Before: Jul  3 09:55:30 2012 GMT
            Not After : Jul  3 09:55:30 2013 GMT
        Subject: C=IT, ST=Emilia Romagna, O=IGI, OU=VOMS, CN=voms-client
        Subject Public Key Info:
            Public Key Algorithm: rsaEncryption
                Public-Key: (1024 bit)
                Modulus:
                    00:dd:ed:d6:e8:4a:95:a1:08:f0:21:32:73:98:0e:
                    7f:7d:40:71:c7:c4:f0:fb:16:81:61:85:e0:3e:c8:
                    17:1e:53:bf:38:fa:08:f1:b4:59:3d:d3:36:77:a3:
                    9d:26:16:7d:f3:11:48:6d:ce:bb:e0:1a:45:95:b9:
                    81:40:c0:fa:81:8c:fb:26:62:84:4b:b7:c0:8a:cb:
                    8e:2b:40:eb:a3:8b:8f:18:63:66:4b:3c:59:4f:a7:
                    89:2a:44:2d:cf:02:25:35:61:34:17:9b:31:b8:e0:
                    fb:bd:9f:25:8c:87:3f:87:1c:27:f3:89:72:b2:5b:
                    cc:70:28:17:2d:83:1b:62:e1
                Exponent: 65537 (0x10001)
        X509v3 extensions:
            X509v3 Basic Constraints: 
                CA:FALSE
            Netscape Comment: 
                OpenSSL Generated Certificate
            X509v3 Subject Key Identifier: 
                60:AB:5D:4F:86:A8:1B:78:73:D6:FA:6D:69:1B:B2:6E:83:64:5E:A5
            X509v3 Authority Key Identifier: 
                keyid:43:DA:84:92:66:A1:A0:12:8D:4C:A1:8C:43:96:86:37:D6:DA:61:0F

    Signature Algorithm: sha1WithRSAEncryption
         1a:01:f4:fe:02:4f:2e:25:e8:49:d4:0d:2b:75:7c:87:82:1d:
         dd:d8:b1:45:ee:7f:e3:b2:2b:fd:b2:ce:b8:48:f9:38:cd:a3:
         f1:5c:b6:c0:ad:09:09:ee:68:1d:43:b0:2b:31:68:0c:2f:b8:
         57:bc:ef:bd:ce:ec:6b:d3:4a:20:10:3b:0e:73:02:4d:fd:57:
         75:a9:a8:77:07:73:8b:f5:9e:1e:36:ac:a6:b7:6b:f8:e9:f2:
         3f:cd:fb:c8:07:ec:fb:a8:d2:10:24:28:eb:90:6f:1b:b1:77:
         1d:66:49:b6:ed:50:a2:c8:7a:22:4a:94:da:89:fc:9e:e7:f7:
         55:97
-----BEGIN CERTIFICATE-----
MIICsTCCAhqgAwIBAgIBBTANBgkqhkiG9w0BAQUFADBnMQswCQYDVQQGEwJJVDEX
MBUGA1UECBMORW1pbGlhIFJvbWFnbmExEDAOBgNVBAcTB0JvbG9nbmExDDAKBgNV
BAoTA0lHSTENMAsGA1UECxMEVk9NUzEQMA4GA1UEAxMHVGVzdCBDQTAeFw0xMjA3
MDMwOTU1MzBaFw0xMzA3MDMwOTU1MzBaMFkxCzAJBgNVBAYTAklUMRcwFQYDVQQI
Ew5FbWlsaWEgUm9tYWduYTEMMAoGA1UEChMDSUdJMQ0wCwYDVQQLEwRWT01TMRQw
EgYDVQQDEwt2b21zLWNsaWVudDCBnzANBgkqhkiG9w0BAQEFAAOBjQAwgYkCgYEA
3e3W6EqVoQjwITJzmA5/fUBxx8Tw+xaBYYXgPsgXHlO/OPoI8bRZPdM2d6OdJhZ9
8xFIbc674BpFlbmBQMD6gYz7JmKES7fAisuOK0Dro4uPGGNmSzxZT6eJKkQtzwIl
NWE0F5sxuOD7vZ8ljIc/hxwn84lyslvMcCgXLYMbYuECAwEAAaN7MHkwCQYDVR0T
BAIwADAsBglghkgBhvhCAQ0EHxYdT3BlblNTTCBHZW5lcmF0ZWQgQ2VydGlmaWNh
dGUwHQYDVR0OBBYEFGCrXU+GqBt4c9b6bWkbsm6DZF6lMB8GA1UdIwQYMBaAFEPa
hJJmoaASjUyhjEOWhjfW2mEPMA0GCSqGSIb3DQEBBQUAA4GBABoB9P4CTy4l6EnU
DSt1fIeCHd3YsUXuf+OyK/2yzrhI+TjNo/FctsCtCQnuaB1DsCsxaAwvuFe8773O
7GvTSiAQOw5zAk39V3WpqHcHc4v1nh42rKa3a/jp8j/N+8gH7Puo0hAkKOuQbxux
dx1mSbbtUKLIeiJKlNqJ/J7n91WX
-----END CERTIFICATE-----
