Certificate:
    Data:
        Version: 3 (0x2)
        Serial Number: 59 (0x3b)
    Signature Algorithm: sha1WithRSAEncryption
        Issuer: C=IT, O=IGI, CN=Test CA
        Validity
            Not Before: Sep 24 11:48:19 2013 GMT
            Not After : Sep 22 11:48:19 2023 GMT
        Subject: C=IT, O=IGI, CN=voms-client
        Subject Public Key Info:
            Public Key Algorithm: rsaEncryption
                Public-Key: (2048 bit)
                Modulus:
                    00:d4:82:af:dc:78:69:4b:55:98:94:a7:bb:3a:88:
                    25:c5:bc:72:5c:74:7c:a2:b2:c4:79:5a:d2:3d:88:
                    6e:ad:93:c9:95:f0:17:01:b8:fb:cc:b7:c3:03:a1:
                    73:fb:59:e6:96:93:96:b2:4a:b5:3f:e0:9e:b9:6d:
                    72:7f:6e:f2:6f:a2:64:d1:79:fd:d0:5d:ce:40:24:
                    18:db:c7:d3:c4:24:99:46:26:e2:e7:3e:3f:39:6b:
                    70:ad:7e:17:e8:65:15:05:25:ef:db:63:f7:20:33:
                    94:3d:34:9a:a6:13:73:3b:4f:28:b6:59:10:8b:9f:
                    b9:a4:de:42:b3:ed:0b:67:f2:15:89:29:dd:57:99:
                    c0:35:8e:bc:a7:bc:3d:18:75:92:59:13:d0:39:23:
                    e4:59:c1:3d:b8:8b:ef:4c:4a:2c:8a:26:d3:35:06:
                    9a:11:dd:93:7c:2d:3f:99:70:d1:f1:ca:7e:12:ae:
                    94:cf:44:3d:71:ba:64:cd:f1:db:e1:23:0b:2b:5f:
                    aa:b6:d7:27:fa:3b:8f:4d:70:7a:42:4d:87:7e:a4:
                    55:8c:db:f0:cd:b0:73:ed:f3:cb:00:0e:d4:53:4e:
                    ce:37:95:a4:98:27:e5:48:d7:aa:2c:ed:11:e2:ef:
                    3f:b7:76:65:93:70:ef:0f:fb:35:f6:b3:34:6b:2a:
                    e0:ef
                Exponent: 65537 (0x10001)
        X509v3 extensions:
            X509v3 Basic Constraints: critical
                CA:FALSE
            X509v3 Subject Key Identifier: 
                3B:99:37:B0:52:70:7E:22:B9:41:5B:26:83:46:7B:2E:6A:FE:05:BD
            X509v3 Key Usage: critical
                Digital Signature, Non Repudiation, Key Encipherment
            X509v3 Extended Key Usage: 
                TLS Web Server Authentication, TLS Web Client Authentication, Microsoft Server Gated Crypto, Netscape Server Gated Crypto, E-mail Protection
            X509v3 Authority Key Identifier: 
                keyid:91:77:36:7B:2E:B4:69:F3:27:EA:B7:F6:08:8B:4A:23:A2:11:49:C6

            X509v3 Subject Alternative Name: 
                email:andrea.ceccanti@cnaf.infn.it
    Signature Algorithm: sha1WithRSAEncryption
         5d:0e:cd:f7:02:c7:b5:69:f2:e4:dd:7a:34:f2:eb:0b:f6:dd:
         32:6a:db:b2:75:4c:3c:a8:0e:5e:47:24:40:d6:bf:d2:5d:46:
         86:73:bc:60:a2:ab:ca:ac:d4:fe:6e:33:ce:eb:29:1c:81:a4:
         43:14:3d:f8:3f:9a:2d:77:b2:83:19:2f:8c:f7:83:06:8f:b8:
         a5:82:5e:7c:91:a7:93:e4:2b:46:cf:0d:65:70:9d:e5:10:16:
         47:21:34:82:cf:ad:4b:41:15:b2:2a:75:9c:a9:34:09:f2:ab:
         c5:74:6c:fc:f6:26:1e:3d:03:fa:b0:c3:51:fd:5f:89:53:7c:
         9c:4a:83:81:01:66:35:e1:a6:71:33:c0:14:31:5f:b7:81:3b:
         cd:7e:ba:3e:51:ef:22:dc:e9:7f:31:6d:cf:b1:b1:5a:33:8d:
         ad:fd:00:e0:e4:65:45:6e:c6:62:96:ea:c2:e6:18:11:cf:77:
         f2:8c:fe:96:c7:8e:1a:16:a1:6e:45:bd:f3:0a:3b:24:71:f0:
         e5:d2:f0:7f:7f:de:8a:e0:94:dc:15:c5:63:88:29:f3:33:07:
         71:8c:8d:44:38:83:85:92:46:11:8f:61:19:68:fd:5e:93:01:
         fe:c0:e7:bd:18:d8:26:49:bc:95:c4:cb:47:ae:45:c0:54:cc:
         5f:ec:a4:26
-----BEGIN CERTIFICATE-----
MIIDpDCCAoygAwIBAgIBOzANBgkqhkiG9w0BAQUFADAtMQswCQYDVQQGEwJJVDEM
MAoGA1UECgwDSUdJMRAwDgYDVQQDDAdUZXN0IENBMB4XDTEzMDkyNDExNDgxOVoX
DTIzMDkyMjExNDgxOVowMTELMAkGA1UEBhMCSVQxDDAKBgNVBAoTA0lHSTEUMBIG
A1UEAxMLdm9tcy1jbGllbnQwggEiMA0GCSqGSIb3DQEBAQUAA4IBDwAwggEKAoIB
AQDUgq/ceGlLVZiUp7s6iCXFvHJcdHyissR5WtI9iG6tk8mV8BcBuPvMt8MDoXP7
WeaWk5aySrU/4J65bXJ/bvJvomTRef3QXc5AJBjbx9PEJJlGJuLnPj85a3Ctfhfo
ZRUFJe/bY/cgM5Q9NJqmE3M7Tyi2WRCLn7mk3kKz7Qtn8hWJKd1XmcA1jrynvD0Y
dZJZE9A5I+RZwT24i+9MSiyKJtM1BpoR3ZN8LT+ZcNHxyn4SrpTPRD1xumTN8dvh
IwsrX6q21yf6O49NcHpCTYd+pFWM2/DNsHPt88sADtRTTs43laSYJ+VI16os7RHi
7z+3dmWTcO8P+zX2szRrKuDvAgMBAAGjgcowgccwDAYDVR0TAQH/BAIwADAdBgNV
HQ4EFgQUO5k3sFJwfiK5QVsmg0Z7Lmr+Bb0wDgYDVR0PAQH/BAQDAgXgMD4GA1Ud
JQQ3MDUGCCsGAQUFBwMBBggrBgEFBQcDAgYKKwYBBAGCNwoDAwYJYIZIAYb4QgQB
BggrBgEFBQcDBDAfBgNVHSMEGDAWgBSRdzZ7LrRp8yfqt/YIi0ojohFJxjAnBgNV
HREEIDAegRxhbmRyZWEuY2VjY2FudGlAY25hZi5pbmZuLml0MA0GCSqGSIb3DQEB
BQUAA4IBAQBdDs33Ase1afLk3Xo08usL9t0yatuydUw8qA5eRyRA1r/SXUaGc7xg
oqvKrNT+bjPO6ykcgaRDFD34P5otd7KDGS+M94MGj7ilgl58kaeT5CtGzw1lcJ3l
EBZHITSCz61LQRWyKnWcqTQJ8qvFdGz89iYePQP6sMNR/V+JU3ycSoOBAWY14aZx
M8AUMV+3gTvNfro+Ue8i3Ol/MW3PsbFaM42t/QDg5GVFbsZilurC5hgRz3fyjP6W
x44aFqFuRb3zCjskcfDl0vB/f96K4JTcFcVjiCnzMwdxjI1EOIOFkkYRj2EZaP1e
kwH+wOe9GNgmSbyVxMtHrkXAVMxf7KQm
-----END CERTIFICATE-----
