Certificate:
    Data:
        Version: 3 (0x2)
        Serial Number: 4 (0x4)
    Signature Algorithm: sha1WithRSAEncryption
        Issuer: C=IT, ST=Emilia Romagna, L=Bologna, O=IGI, OU=VOMS, CN=Test CA
        Validity
            Not Before: Jul  3 09:54:04 2012 GMT
            Not After : Jul  3 09:54:04 2013 GMT
        Subject: C=IT, ST=Emilia Romagna, O=IGI, OU=VOMS, CN=voms-service
        Subject Public Key Info:
            Public Key Algorithm: rsaEncryption
                Public-Key: (1024 bit)
                Modulus:
                    00:a0:ef:3d:4e:da:c5:99:d1:78:a9:89:dd:55:f2:
                    6b:c8:e1:39:a2:66:c2:4a:91:d6:85:84:b8:8e:26:
                    f0:1f:42:1c:06:a4:25:1c:7a:aa:4d:38:dc:90:05:
                    d4:bc:06:82:50:c1:83:ea:49:1c:9d:6e:d1:38:15:
                    1a:5f:4a:47:91:0b:7e:1c:9e:73:6d:47:67:86:1f:
                    0d:51:45:74:67:70:87:75:b5:38:b3:08:78:c9:14:
                    f7:5d:13:09:aa:65:a3:89:1e:36:bf:7d:18:ad:f6:
                    ef:38:42:3d:cb:66:9f:06:a6:b3:94:72:d3:19:87:
                    04:35:34:35:af:c7:1a:1b:77
                Exponent: 65537 (0x10001)
        X509v3 extensions:
            X509v3 Basic Constraints: 
                CA:FALSE
            Netscape Comment: 
                OpenSSL Generated Certificate
            X509v3 Subject Key Identifier: 
                0B:8B:31:16:0B:7B:DF:D6:FF:CB:27:09:82:75:49:5C:49:22:9C:4D
            X509v3 Authority Key Identifier: 
                keyid:43:DA:84:92:66:A1:A0:12:8D:4C:A1:8C:43:96:86:37:D6:DA:61:0F

    Signature Algorithm: sha1WithRSAEncryption
         65:90:67:ec:a5:8b:e8:3f:45:97:e2:93:a5:b6:bb:3b:2e:8a:
         55:c3:0b:1c:fe:d4:e7:e8:c3:bc:b8:6e:c1:6e:d4:62:5e:cf:
         31:96:b0:bf:90:0d:50:94:9e:f7:7b:15:57:13:4a:c2:08:ba:
         3b:08:51:c8:a4:d2:f5:33:d8:e7:6f:e5:37:02:e8:4f:38:ca:
         fd:d4:af:86:f7:d7:dd:29:1b:e6:68:de:01:6b:2e:c6:9b:df:
         cf:15:4e:70:51:ee:5f:83:20:4e:6d:73:af:50:7e:d9:c5:62:
         b4:12:1e:25:a8:a0:37:3e:9e:aa:cf:15:20:32:47:5f:f2:7f:
         ab:2e
-----BEGIN CERTIFICATE-----
MIICsjCCAhugAwIBAgIBBDANBgkqhkiG9w0BAQUFADBnMQswCQYDVQQGEwJJVDEX
MBUGA1UECBMORW1pbGlhIFJvbWFnbmExEDAOBgNVBAcTB0JvbG9nbmExDDAKBgNV
BAoTA0lHSTENMAsGA1UECxMEVk9NUzEQMA4GA1UEAxMHVGVzdCBDQTAeFw0xMjA3
MDMwOTU0MDRaFw0xMzA3MDMwOTU0MDRaMFoxCzAJBgNVBAYTAklUMRcwFQYDVQQI
Ew5FbWlsaWEgUm9tYWduYTEMMAoGA1UEChMDSUdJMQ0wCwYDVQQLEwRWT01TMRUw
EwYDVQQDEwx2b21zLXNlcnZpY2UwgZ8wDQYJKoZIhvcNAQEBBQADgY0AMIGJAoGB
AKDvPU7axZnReKmJ3VXya8jhOaJmwkqR1oWEuI4m8B9CHAakJRx6qk043JAF1LwG
glDBg+pJHJ1u0TgVGl9KR5ELfhyec21HZ4YfDVFFdGdwh3W1OLMIeMkU910TCapl
o4keNr99GK327zhCPctmnwams5Ry0xmHBDU0Na/HGht3AgMBAAGjezB5MAkGA1Ud
EwQCMAAwLAYJYIZIAYb4QgENBB8WHU9wZW5TU0wgR2VuZXJhdGVkIENlcnRpZmlj
YXRlMB0GA1UdDgQWBBQLizEWC3vf1v/LJwmCdUlcSSKcTTAfBgNVHSMEGDAWgBRD
2oSSZqGgEo1MoYxDloY31tphDzANBgkqhkiG9w0BAQUFAAOBgQBlkGfspYvoP0WX
4pOltrs7LopVwwsc/tTn6MO8uG7BbtRiXs8xlrC/kA1QlJ73exVXE0rCCLo7CFHI
pNL1M9jnb+U3AuhPOMr91K+G99fdKRvmaN4Bay7Gm9/PFU5wUe5fgyBObXOvUH7Z
xWK0Eh4lqKA3Pp6qzxUgMkdf8n+rLg==
-----END CERTIFICATE-----
